(dp0
S'Combinatorics/sw10_2_14'
p1
(lp2
S'firstHint'
p3
aS'hint_class.Week2.firstHint.firstHint'
p4
aS'hint_class.Week2..firstHint.firstHint'
p5
asS'Combinatorics/p10'
p6
(lp7
g3
ag4
ag5
asS'Poker/q2'
p8
(lp9
g3
ag4
ag5
as.