(dp0
(S'4'
p1
S'1'
p2
S'2'
p3
tp4
(dp5
(S'152'
p6
S'Ankush_Sarow'
p7
tp8
(lp9
(lp10
S'2016-10-19 19:47:25'
p11
aS'no attempt'
p12
aS'Please write an expression, not the final numerical result.'
p13
aa(lp14
S'2016-10-19 20:04:22'
p15
aS'no attempt'
p16
aS'Please write an expression, not the final numerical result.'
p17
aass(g1
g2
g2
tp18
(dp19
(g6
S'Ankush_Sarow'
p20
tp21
(lp22
(lp23
S'2016-10-19 19:47:23'
p24
aS'no attempt'
p25
aS'Please write an expression, not the final numerical result.'
p26
aass(S'3'
p27
g1
g27
tp28
(dp29
(S'116'
p30
S'djmoreno'
p31
tp32
(lp33
(lp34
S'2016-10-14 23:24:29'
p35
aS'48'
p36
aS'Please write an expression, not the final numerical result.'
p37
aas(S'278'
p38
S'PhillipJo'
p39
tp40
(lp41
(lp42
S'2016-10-14 19:26:04'
p43
ag1
aS'Please write an expression, not the final numerical result.'
p44
aas(S'155'
p45
S'j2chang'
p46
tp47
(lp48
(lp49
S'2016-10-14 19:57:02'
p50
aS'7'
p51
aS'Please write an expression, not the final numerical result.'
p52
aas(S'121'
p53
S'CharlesCruz'
p54
tp55
(lp56
(lp57
S'2016-10-14 17:46:48'
p58
aS'12'
p59
aS'Please write an expression, not the final numerical result.'
p60
aas(S'138'
p61
S'pgupta'
p62
tp63
(lp64
(lp65
S'2016-10-15 00:20:51'
p66
ag51
aS'Please write an expression, not the final numerical result.'
p67
aass(g3
S'9'
p68
g3
tp69
(dp70
(S'179'
p71
S'gstamp'
p72
tp73
(lp74
(lp75
S'2016-10-06 07:15:05'
p76
aS'8835488640'
p77
aS'Please write an expression, not the final numerical result.'
p78
aa(lp79
S'2016-10-06 07:19:38'
p80
aS'8835488640'
p81
aS'Please write an expression, not the final numerical result.'
p82
aa(lp83
S'2016-10-06 07:24:02'
p84
aS'11441304000'
p85
aS'Please write an expression, not the final numerical result.'
p86
aa(lp87
S'2016-10-06 07:24:47'
p88
aS'50*49*48*47*46*45'
p89
aS'Please write an expression, not the final numerical result.'
p90
aas(S'107'
p91
S'nanguian'
p92
tp93
(lp94
(lp95
S'2016-10-05 23:04:28'
p96
aS'18009460'
p97
aS'Please write an expression, not the final numerical result.'
p98
aas(S'134'
p99
S'a1vinwu'
p100
tp101
(lp102
(lp103
S'2016-10-06 04:23:21'
p104
aS'205476480'
p105
aS'Please write an expression, not the final numerical result.'
p106
aas(S'250'
p107
S'tdea'
p108
tp109
(lp110
(lp111
S'2016-10-05 21:56:59'
p112
aS'15890700'
p113
aS'Please write an expression, not the final numerical result.'
p114
aass(g1
S'5'
p115
g2
tp116
(dp117
(S'287'
p118
S'thartopu'
p119
tp120
(lp121
(lp122
S'2016-10-19 11:47:24'
p123
aS'no attempt'
p124
aS'Please write an expression, not the final numerical result.'
p125
aass(g27
g3
g51
tp126
(dp127
(S'131'
p128
S'ETDuong'
p129
tp130
(lp131
(lp132
S'2016-10-14 19:49:46'
p133
aS'.0546875005'
p134
aS'Please write an expression, not the final numerical result.'
p135
aas(S'127'
p136
S'karl-rummler'
p137
tp138
(lp139
(lp140
S'2016-10-14 18:54:17'
p141
aS'1 - ((C(10,8) + C(10,9) + 1)*.5^10) * 317'
p142
aS'Can the answer be negative?'
p143
aas(g71
S'gstamp'
p144
tp145
(lp146
(lp147
S'2016-10-14 18:10:07'
p148
aS'0.99999999747337356688'
p149
aS'Please write an expression, not the final numerical result.'
p150
aas(S'62'
p151
S'Steven_Natalius'
p152
tp153
(lp154
(lp155
S'2016-10-14 18:52:48'
p156
aS'1-(C(365,1)+C(365,0))*((C(10,0)+C(10,1)+C(10,2))/(2^10))'
p157
aS'Can the answer be negative?'
p158
aa(lp159
S'2016-10-14 18:52:54'
p160
aS'1-(C(365,1)+C(365,0))*((C(10,0)+C(10,1)+C(10,2))/(2^10))'
p161
aS'Can the answer be negative?'
p162
aas(g61
S'pgupta'
p163
tp164
(lp165
(lp166
S'2016-10-15 00:11:18'
p167
aS'1 - 2^10'
p168
aS'Can the answer be negative?'
p169
aass(g27
g68
g2
tp170
(dp171
(S'115'
p172
S'Max'
p173
tp174
(lp175
(lp176
S'2016-10-14 15:48:29'
p177
aS'154440'
p178
aS'Please write an expression, not the final numerical result.'
p179
aass(g27
g1
g2
tp180
(dp181
(S'261'
p182
S'ChenquanJiang'
p183
tp184
(lp185
(lp186
S'2016-10-14 23:47:59'
p187
aS'120'
p188
aS'Please write an expression, not the final numerical result.'
p189
aas(g61
S'pgupta'
p190
tp191
(lp192
(lp193
S'2016-10-14 23:53:14'
p194
aS'32'
p195
aS'Please write an expression, not the final numerical result.'
p196
aas(S'203'
p197
S'ccaine'
p198
tp199
(lp200
(lp201
S'2016-10-14 17:52:20'
p202
ag1
aS'Please write an expression, not the final numerical result.'
p203
aas(S'345'
p204
S'wesleymwong'
p205
tp206
(lp207
(lp208
S'2016-10-14 23:16:49'
p209
aS'8'
p210
aS'Please write an expression, not the final numerical result.'
p211
aas(S'332'
p212
S'BrianaW'
p213
tp214
(lp215
(lp216
S'2016-10-14 22:04:12'
p217
aS'6!/(6!*4!)'
p218
aS'Can the answer be fractional?'
p219
aa(lp220
S'2016-10-14 22:07:10'
p221
aS'32'
p222
aS'Please write an expression, not the final numerical result.'
p223
aas(S'54'
p224
S'Jyrodgers'
p225
tp226
(lp227
(lp228
S'2016-10-14 15:58:53'
p229
aS'720'
p230
aS'Please write an expression, not the final numerical result.'
p231
aas(g53
S'CharlesCruz'
p232
tp233
(lp234
(lp235
S'2016-10-14 17:42:30'
p236
ag1
aS'Please write an expression, not the final numerical result.'
p237
aa(lp238
S'2016-10-14 17:46:41'
p239
aS'35'
p240
aS'Please write an expression, not the final numerical result.'
p241
aas(S'292'
p242
S'yaojeffrey'
p243
tp244
(lp245
(lp246
S'2016-10-14 22:22:56'
p247
ag1
aS'Please write an expression, not the final numerical result.'
p248
aass(g27
g68
g3
tp249
(dp250
(S'273'
p251
S'jewidjaj'
p252
tp253
(lp254
(lp255
S'2016-10-14 17:59:00'
p256
aS'15'
p257
aS'Please write an expression, not the final numerical result.'
p258
aas(S'220'
p259
S'Darthsneak'
p260
tp261
(lp262
(lp263
S'2016-10-14 10:08:33'
p264
aS'495'
p265
aS'Please write an expression, not the final numerical result.'
p266
aas(S'284'
p267
S'shravangrandhi'
p268
tp269
(lp270
(lp271
S'2016-10-14 10:12:59'
p272
aS'462'
p273
aS'Please write an expression, not the final numerical result.'
p274
aas(S'252'
p275
S'rdabir'
p276
tp277
(lp278
(lp279
S'2016-10-14 18:42:17'
p280
aS'330'
p281
aS'Please write an expression, not the final numerical result.'
p282
aa(lp283
S'2016-10-14 18:42:18'
p284
aS'330'
p285
aS'Please write an expression, not the final numerical result.'
p286
aass(g27
g68
g27
tp287
(dp288
(g259
S'Darthsneak'
p289
tp290
(lp291
(lp292
S'2016-10-14 10:08:35'
p293
aS'126'
p294
aS'Please write an expression, not the final numerical result.'
p295
aas(g275
S'rdabir'
p296
tp297
(lp298
(lp299
S'2016-10-14 19:14:44'
p300
aS'165'
p301
aS'Please write an expression, not the final numerical result.'
p302
aass(g3
g51
g3
tp303
(dp304
(S'186'
p305
S'URajkumar'
p306
tp307
(lp308
(lp309
S'2016-10-06 01:04:23'
p310
aS'13800'
p311
aS'Please write an expression, not the final numerical result.'
p312
aas(S'337'
p313
S'ddantas'
p314
tp315
(lp316
(lp317
S'2016-10-06 06:49:42'
p318
aS'15625'
p319
aS'Please write an expression, not the final numerical result.'
p320
aass(g27
g115
g2
tp321
(dp322
(S'145'
p323
S'gtran'
p324
tp325
(lp326
(lp327
S'2016-10-14 17:27:09'
p328
aS'286'
p329
aS'Please write an expression, not the final numerical result.'
p330
aass(g27
g2
g1
tp331
(dp332
(S'297'
p333
S'Brnkvu'
p334
tp335
(lp336
(lp337
S'2016-10-14 23:42:42'
p338
aS'6'
p339
aS'Please write an expression, not the final numerical result.'
p340
aas(S'308'
p341
S'AndyYeung'
p342
tp343
(lp344
(lp345
S'2016-10-14 21:27:12'
p346
ag115
aS'Please write an expression, not the final numerical result.'
p347
aas(g30
S'djmoreno'
p348
tp349
(lp350
(lp351
S'2016-10-15 00:48:12'
p352
aS'24'
p353
aS'Please write an expression, not the final numerical result.'
p354
aas(S'195'
p355
S'a9zhao'
p356
tp357
(lp358
(lp359
S'2016-10-14 20:16:58'
p360
ag115
aS'Please write an expression, not the final numerical result.'
p361
aa(lp362
S'2016-10-14 20:18:48'
p363
ag115
aS'Please write an expression, not the final numerical result.'
p364
aas(g91
S'nanguian'
p365
tp366
(lp367
(lp368
S'2016-10-14 22:18:53'
p369
ag27
aS'Please write an expression, not the final numerical result.'
p370
aa(lp371
S'2016-10-14 22:26:20'
p372
ag27
aS'Please write an expression, not the final numerical result.'
p373
aas(g305
S'URajkumar'
p374
tp375
(lp376
(lp377
S'2016-10-14 22:29:15'
p378
ag27
aS'Please write an expression, not the final numerical result.'
p379
aas(g136
S'karl-rummler'
p380
tp381
(lp382
(lp383
S'2016-10-14 20:23:22'
p384
ag27
aS'Please write an expression, not the final numerical result.'
p385
aas(g275
S'rdabir'
p386
tp387
(lp388
(lp389
S'2016-10-14 19:37:45'
p390
ag115
aS'Please write an expression, not the final numerical result.'
p391
aa(lp392
S'2016-10-14 21:13:31'
p393
ag115
aS'Please write an expression, not the final numerical result.'
p394
aa(lp395
S'2016-10-14 21:13:32'
p396
ag115
aS'Please write an expression, not the final numerical result.'
p397
aa(lp398
S'2016-10-14 21:35:48'
p399
ag115
aS'Please write an expression, not the final numerical result.'
p400
aas(S'101'
p401
S'DRavida'
p402
tp403
(lp404
(lp405
S'2016-10-14 18:17:43'
p406
ag27
aS'Please write an expression, not the final numerical result.'
p407
aa(lp408
S'2016-10-14 22:16:22'
p409
ag27
aS'Please write an expression, not the final numerical result.'
p410
aas(S'256'
p411
S'HansGamboa'
p412
tp413
(lp414
(lp415
S'2016-10-14 23:11:01'
p416
aS'24'
p417
aS'Please write an expression, not the final numerical result.'
p418
aas(S'329'
p419
S'nguyenbui'
p420
tp421
(lp422
(lp423
S'2016-10-14 20:09:54'
p424
aS'12'
p425
aS'Please write an expression, not the final numerical result.'
p426
aas(S'348'
p427
S'gurkiratsingh'
p428
tp429
(lp430
(lp431
S'2016-10-14 23:04:07'
p432
ag27
aS'Please write an expression, not the final numerical result.'
p433
aas(S'255'
p434
S'Nikan_Aminian'
p435
tp436
(lp437
(lp438
S'2016-10-14 21:18:27'
p439
aS'1 - C(4,2)'
p440
aS'Can the answer be negative?'
p441
aa(lp442
S'2016-10-14 21:53:01'
p443
aS'16'
p444
aS'Please write an expression, not the final numerical result.'
p445
aas(S'108'
p446
S'JaceChan'
p447
tp448
(lp449
(lp450
S'2016-10-14 23:15:57'
p451
ag27
aS'Please write an expression, not the final numerical result.'
p452
aas(S'315'
p453
S'FrankHuang'
p454
tp455
(lp456
(lp457
S'2016-10-14 17:18:53'
p458
ag115
aS'Please write an expression, not the final numerical result.'
p459
aa(lp460
S'2016-10-14 17:18:59'
p461
ag115
aS'Please write an expression, not the final numerical result.'
p462
aa(lp463
S'2016-10-14 17:18:59'
p464
ag115
aS'Please write an expression, not the final numerical result.'
p465
aas(S'183'
p466
S'mninette'
p467
tp468
(lp469
(lp470
S'2016-10-14 19:32:02'
p471
ag115
aS'Please write an expression, not the final numerical result.'
p472
aas(S'211'
p473
S'KimberlyLy'
p474
tp475
(lp476
(lp477
S'2016-10-14 18:09:36'
p478
ag68
aS'Please write an expression, not the final numerical result.'
p479
aa(lp480
S'2016-10-14 18:36:55'
p481
ag27
aS'Please write an expression, not the final numerical result.'
p482
aas(g212
S'BrianaW'
p483
tp484
(lp485
(lp486
S'2016-10-14 23:46:52'
p487
ag27
aS'Please write an expression, not the final numerical result.'
p488
aas(S'352'
p489
S'whcombs'
p490
tp491
(lp492
(lp493
S'2016-10-14 16:00:30'
p494
ag3
aS'Please write an expression, not the final numerical result.'
p495
aas(S'189'
p496
S'ottojursch'
p497
tp498
(lp499
(lp500
S'2016-10-14 21:16:10'
p501
aS'49'
p502
aS'Please write an expression, not the final numerical result.'
p503
aa(lp504
S'2016-10-14 21:16:10'
p505
aS'49'
p506
aS'Please write an expression, not the final numerical result.'
p507
aas(S'104'
p508
S'heitorschueroff'
p509
tp510
(lp511
(lp512
S'2016-10-14 20:06:08'
p513
aS'C(5,4) - C(5,2)'
p514
aS'Can the answer be negative?'
p515
aas(S'269'
p516
S'danFlorencio'
p517
tp518
(lp519
(lp520
S'2016-10-14 21:13:13'
p521
ag210
aS'Please write an expression, not the final numerical result.'
p522
aas(S'139'
p523
S'RodrigoM'
p524
tp525
(lp526
(lp527
S'2016-10-14 23:50:33'
p528
ag1
aS'Please write an expression, not the final numerical result.'
p529
aa(lp530
S'2016-10-15 00:18:38'
p531
ag1
aS'Please write an expression, not the final numerical result.'
p532
aas(S'241'
p533
S'nolin'
p534
tp535
(lp536
(lp537
S'2016-10-15 00:26:42'
p538
ag115
aS'Please write an expression, not the final numerical result.'
p539
aas(S'339'
p540
S'jarninfang'
p541
tp542
(lp543
(lp544
S'2016-10-14 23:12:20'
p545
ag27
aS'Please write an expression, not the final numerical result.'
p546
aa(lp547
S'2016-10-14 23:37:56'
p548
aS'36'
p549
aS'Please write an expression, not the final numerical result.'
p550
aa(lp551
S'2016-10-14 23:42:01'
p552
ag339
aS'Please write an expression, not the final numerical result.'
p553
aas(g204
S'wesleymwong'
p554
tp555
(lp556
(lp557
S'2016-10-14 20:14:26'
p558
ag27
aS'Please write an expression, not the final numerical result.'
p559
aas(S'123'
p560
S'msp'
p561
tp562
(lp563
(lp564
S'2016-10-14 22:05:06'
p565
ag27
aS'Please write an expression, not the final numerical result.'
p566
aas(g267
S'shravangrandhi'
p567
tp568
(lp569
(lp570
S'2016-10-14 20:33:47'
p571
aS'144'
p572
aS'Please write an expression, not the final numerical result.'
p573
aa(lp574
S'2016-10-14 20:39:31'
p575
aS'144'
p576
aS'Please write an expression, not the final numerical result.'
p577
aas(S'285'
p578
S'KevinChrisayrton'
p579
tp580
(lp581
(lp582
S'2016-10-14 20:31:01'
p583
ag115
aS'Please write an expression, not the final numerical result.'
p584
aa(lp585
S'2016-10-14 20:31:03'
p586
ag115
aS'Please write an expression, not the final numerical result.'
p587
aa(lp588
S'2016-10-14 21:16:00'
p589
aS'220'
p590
aS'Please write an expression, not the final numerical result.'
p591
aas(S'65'
p592
S'Derrick'
p593
tp594
(lp595
(lp596
S'2016-10-14 21:41:52'
p597
ag27
aS'Please write an expression, not the final numerical result.'
p598
aass(g3
g51
g2
tp599
(dp600
(S'109'
p601
S'AlexM'
p602
tp603
(lp604
(lp605
S'2016-10-04 09:05:56'
p606
aS''
p607
aS'Please write an expression, not the final numerical result.'
p608
aas(g313
S'ddantas'
p609
tp610
(lp611
(lp612
S'2016-10-06 06:40:39'
p613
aS'26'
p614
aS'Please write an expression, not the final numerical result.'
p615
aas(g99
S'a1vinwu'
p616
tp617
(lp618
(lp619
S'2016-10-06 03:50:43'
p620
aS'11/36'
p621
aS'Can the answer be fractional?'
p622
aas(S'340'
p623
S'anMihaly'
p624
tp625
(lp626
(lp627
S'2016-10-05 22:51:12'
p628
ag339
aS'Please write an expression, not the final numerical result.'
p629
aa(lp630
S'2016-10-05 22:58:16'
p631
aS'11/36'
p632
aS'Can the answer be fractional?'
p633
aas(g305
S'URajkumar'
p634
tp635
(lp636
(lp637
S'2016-10-06 01:01:18'
p638
ag27
aS'Please write an expression, not the final numerical result.'
p639
aa(lp640
S'2016-10-06 01:06:34'
p641
aS'3/36'
p642
aS'Can the answer be fractional?'
p643
aas(S'283'
p644
S'kkhuong'
p645
tp646
(lp647
(lp648
S'2016-10-06 02:25:12'
p649
aS'(6*6 - 5*5)/2'
p650
aS'Can the answer be fractional?'
p651
aass(g27
g2
g115
tp652
(dp653
(g453
S'FrankHuang'
p654
tp655
(lp656
(lp657
S'2016-10-14 17:18:13'
p658
ag27
aS'Please write an expression, not the final numerical result.'
p659
aa(lp660
S'2016-10-14 17:20:17'
p661
ag27
aS'Please write an expression, not the final numerical result.'
p662
aas(g355
S'a9zhao'
p663
tp664
(lp665
(lp666
S'2016-10-14 20:14:35'
p667
ag27
aS'Please write an expression, not the final numerical result.'
p668
aas(g466
S'mninette'
p669
tp670
(lp671
(lp672
S'2016-10-14 20:37:42'
p673
ag27
aS'Please write an expression, not the final numerical result.'
p674
aas(S'113'
p675
S'cwasley'
p676
tp677
(lp678
(lp679
S'2016-10-15 00:39:42'
p680
ag1
aS'Please write an expression, not the final numerical result.'
p681
aas(g30
S'djmoreno'
p682
tp683
(lp684
(lp685
S'2016-10-15 00:50:28'
p686
ag27
aS'Please write an expression, not the final numerical result.'
p687
aas(S'327'
p688
S'JessKwok'
p689
tp690
(lp691
(lp692
S'2016-10-14 18:48:48'
p693
ag3
aS'Please write an expression, not the final numerical result.'
p694
aas(S'304'
p695
S'mtashman'
p696
tp697
(lp698
(lp699
S'2016-10-14 18:52:58'
p700
ag1
aS'Please write an expression, not the final numerical result.'
p701
aas(g267
S'shravangrandhi'
p702
tp703
(lp704
(lp705
S'2016-10-14 20:50:30'
p706
aS'.01472'
p707
aS'Please write an expression, not the final numerical result.'
p708
aas(g516
S'danFlorencio'
p709
tp710
(lp711
(lp712
S'2016-10-14 21:13:15'
p713
aS'28'
p714
aS'Please write an expression, not the final numerical result.'
p715
aas(g644
S'kkhuong'
p716
tp717
(lp718
(lp719
S'2016-10-14 20:29:39'
p720
ag2
aS'Please write an expression, not the final numerical result.'
p721
aas(g275
S'rdabir'
p722
tp723
(lp724
(lp725
S'2016-10-14 21:12:34'
p726
ag27
aS'Please write an expression, not the final numerical result.'
p727
aa(lp728
S'2016-10-14 21:13:01'
p729
ag1
aS'Please write an expression, not the final numerical result.'
p730
aas(g578
S'KevinChrisayrton'
p731
tp732
(lp733
(lp734
S'2016-10-14 20:25:37'
p735
ag27
aS'Please write an expression, not the final numerical result.'
p736
aa(lp737
S'2016-10-14 20:31:05'
p738
ag115
aS'Please write an expression, not the final numerical result.'
p739
aass(g27
g2
g339
tp740
(dp741
(g466
S'mninette'
p742
tp743
(lp744
(lp745
S'2016-10-14 18:47:14'
p746
aS'C(4,1)*C(39,2)/C(52,5)'
p747
aS'Can the answer be fractional?'
p748
aas(g516
S'danFlorencio'
p749
tp750
(lp751
(lp752
S'2016-10-14 22:38:27'
p753
aS'3456'
p754
aS'Please write an expression, not the final numerical result.'
p755
aas(g267
S'shravangrandhi'
p756
tp757
(lp758
(lp759
S'2016-10-14 20:33:49'
p760
aS'570240'
p761
aS'Please write an expression, not the final numerical result.'
p762
aas(g623
S'anMihaly'
p763
tp764
(lp765
(lp766
S'2016-10-14 22:27:42'
p767
aS'712842'
p768
aS'Please write an expression, not the final numerical result.'
p769
aas(S'164'
p770
S'HaeJoonYoon'
p771
tp772
(lp773
(lp774
S'2016-10-14 18:12:03'
p775
aS'57798'
p776
aS'Please write an expression, not the final numerical result.'
p777
aa(lp778
S'2016-10-14 18:12:11'
p779
aS'57798'
p780
aS'Please write an expression, not the final numerical result.'
p781
aass(g27
g339
g3
tp782
(dp783
(S'111'
p784
S'arman'
p785
tp786
(lp787
(lp788
S'2016-10-14 22:32:47'
p789
aS'2600'
p790
aS'Please write an expression, not the final numerical result.'
p791
aas(g333
S'Brnkvu'
p792
tp793
(lp794
(lp795
S'2016-10-14 20:17:10'
p796
aS'3251'
p797
aS'Please write an expression, not the final numerical result.'
p798
aas(S'262'
p799
S'yiw392'
p800
tp801
(lp802
(lp803
S'2016-10-15 00:13:10'
p804
ag27
aS'Please write an expression, not the final numerical result.'
p805
aas(S'132'
p806
S'smkurtz'
p807
tp808
(lp809
(lp810
S'2016-10-14 21:02:54'
p811
aS'655'
p812
aS'Please write an expression, not the final numerical result.'
p813
aa(lp814
S'2016-10-14 21:02:55'
p815
aS'655'
p816
aS'Please write an expression, not the final numerical result.'
p817
aas(g675
S'cwasley'
p818
tp819
(lp820
(lp821
S'2016-10-14 23:46:03'
p822
aS'1951'
p823
aS'Please write an expression, not the final numerical result.'
p824
aas(g182
S'ChenquanJiang'
p825
tp826
(lp827
(lp828
S'2016-10-15 00:03:10'
p829
aS'652'
p830
aS'Please write an expression, not the final numerical result.'
p831
aa(lp832
S'2016-10-15 00:03:11'
p833
aS'652'
p834
aS'Please write an expression, not the final numerical result.'
p835
aas(S'78'
p836
S'aliqbal'
p837
tp838
(lp839
(lp840
S'2016-10-15 00:01:59'
p841
aS'650/4!'
p842
aS'Can the answer be fractional?'
p843
aas(g30
S'djmoreno'
p844
tp845
(lp846
(lp847
S'2016-10-14 23:36:37'
p848
aS'1/(26*25)^4'
p849
aS'Can the answer be fractional?'
p850
aa(lp851
S'2016-10-14 23:36:48'
p852
aS'1/(26*25)^4'
p853
aS'Can the answer be fractional?'
p854
aas(g224
S'Jyrodgers'
p855
tp856
(lp857
(lp858
S'2016-10-14 20:39:26'
p859
aS'1951'
p860
aS'Please write an expression, not the final numerical result.'
p861
aas(g516
S'danFlorencio'
p862
tp863
(lp864
(lp865
S'2016-10-14 21:20:49'
p866
aS'3251'
p867
aS'Please write an expression, not the final numerical result.'
p868
aas(g71
S'gstamp'
p869
tp870
(lp871
(lp872
S'2016-10-14 18:23:33'
p873
aS'2601'
p874
aS'Please write an expression, not the final numerical result.'
p875
aas(g53
S'CharlesCruz'
p876
tp877
(lp878
(lp879
S'2016-10-14 18:08:04'
p880
aS'P(26,2)/3'
p881
aS'Can the answer be fractional?'
p882
aas(S'331'
p883
S'kennyglee'
p884
tp885
(lp886
(lp887
S'2016-10-14 15:45:51'
p888
ag27
aS'Please write an expression, not the final numerical result.'
p889
aass(g27
g2
g51
tp890
(dp891
(g592
S'Derrick'
p892
tp893
(lp894
(lp895
S'2016-10-14 21:46:36'
p896
aS'1-(C(4,2)*C(13,2)*C(39,3)/C(52,5))'
p897
aS'Can the answer be negative?'
p898
aass(g27
g1
g1
tp899
(dp900
(g242
S'yaojeffrey'
p901
tp902
(lp903
(lp904
S'2016-10-14 22:23:01'
p905
aS'7.5'
p906
aS'Please write an expression, not the final numerical result.'
p907
aass(g27
g3
g115
tp908
(dp909
(g784
S'arman'
p910
tp911
(lp912
(lp913
S'2016-10-14 21:05:07'
p914
aS'1-(55/1024+1014/1024)'
p915
aS'Can the answer be negative?'
p916
aas(g560
S'msp'
p917
tp918
(lp919
(lp920
S'2016-10-15 00:25:52'
p921
aS'1-((C(10,2)*((1/2)^10)) + (C(10,1)*(1/2)^10) + (1/(0.5^10)))'
p922
aS'Can the answer be negative?'
p923
aas(S'305'
p924
S'axl004'
p925
tp926
(lp927
(lp928
S'2016-10-14 23:02:04'
p929
aS'1-(10!/2!+ 10!/1! +10!/0!)/2^10'
p930
aS'Can the answer be negative?'
p931
aas(g61
S'pgupta'
p932
tp933
(lp934
(lp935
S'2016-10-15 00:11:16'
p936
aS'3 - 2^10'
p937
aS'Can the answer be negative?'
p938
aass(g27
g2
g2
tp939
(dp940
(S'280'
p941
S'Alix'
p942
tp943
(lp944
(lp945
S'2016-10-12 01:40:54'
p946
aS'12'
p947
aS'Please write an expression, not the final numerical result.'
p948
aas(g799
S'yiw392'
p949
tp950
(lp951
(lp952
S'2016-10-14 23:50:27'
p953
ag607
aS'Please write an expression, not the final numerical result.'
p954
aa(lp955
S'2016-10-14 23:50:56'
p956
aS'C(4,2)*13'
p957
aS'Please write an expression, not the final numerical result.'
p958
aa(lp959
S'2016-10-14 23:51:10'
p960
aS'C(4,2)*13'
p961
aS'Please write an expression, not the final numerical result.'
p962
aa(lp963
S'2016-10-14 23:51:14'
p964
aS'C(4,2)*13'
p965
aS'Please write an expression, not the final numerical result.'
p966
aa(lp967
S'2016-10-14 23:51:24'
p968
aS'C(4,2)*13'
p969
aS'Please write an expression, not the final numerical result.'
p970
aa(lp971
S'2016-10-14 23:51:25'
p972
aS'C(4,2)*13'
p973
aS'Please write an expression, not the final numerical result.'
p974
aa(lp975
S'2016-10-14 23:51:25'
p976
aS'C(4,2)*13'
p977
aS'Please write an expression, not the final numerical result.'
p978
aa(lp979
S'2016-10-14 23:51:25'
p980
aS'C(4,2)*13'
p981
aS'Please write an expression, not the final numerical result.'
p982
aa(lp983
S'2016-10-14 23:51:26'
p984
aS'C(4,2)*13'
p985
aS'Please write an expression, not the final numerical result.'
p986
aa(lp987
S'2016-10-14 23:51:26'
p988
aS'C(4,2)*13'
p989
aS'Please write an expression, not the final numerical result.'
p990
aa(lp991
S'2016-10-14 23:51:26'
p992
aS'C(4,2)*13'
p993
aS'Please write an expression, not the final numerical result.'
p994
aa(lp995
S'2016-10-14 23:51:26'
p996
aS'C(4,2)*13'
p997
aS'Please write an expression, not the final numerical result.'
p998
aa(lp999
S'2016-10-14 23:51:27'
p1000
aS'C(4,2)*13'
p1001
aS'Please write an expression, not the final numerical result.'
p1002
aa(lp1003
S'2016-10-14 23:51:27'
p1004
aS'C(4,2)*13'
p1005
aS'Please write an expression, not the final numerical result.'
p1006
aa(lp1007
S'2016-10-14 23:51:27'
p1008
aS'C(4,2)*13'
p1009
aS'Please write an expression, not the final numerical result.'
p1010
aas(g61
S'pgupta'
p1011
tp1012
(lp1013
(lp1014
S'2016-10-14 21:25:41'
p1015
aS'10'
p1016
aS'Please write an expression, not the final numerical result.'
p1017
aas(g453
S'FrankHuang'
p1018
tp1019
(lp1020
(lp1021
S'2016-10-14 16:23:07'
p1022
ag2
aS'Please write an expression, not the final numerical result.'
p1023
aas(S'309'
p1024
S'bhaveshnibber'
p1025
tp1026
(lp1027
(lp1028
S'2016-10-14 21:35:16'
p1029
aS'10'
p1030
aS'Please write an expression, not the final numerical result.'
p1031
aas(g182
S'ChenquanJiang'
p1032
tp1033
(lp1034
(lp1035
S'2016-10-14 07:56:07'
p1036
aS'16'
p1037
aS'Please write an expression, not the final numerical result.'
p1038
aas(g770
S'HaeJoonYoon'
p1039
tp1040
(lp1041
(lp1042
S'2016-10-14 18:29:21'
p1043
aS'1770'
p1044
aS'Please write an expression, not the final numerical result.'
p1045
aas(g30
S'djmoreno'
p1046
tp1047
(lp1048
(lp1049
S'2016-10-14 22:05:56'
p1050
ag1
aS'Please write an expression, not the final numerical result.'
p1051
aas(g695
S'mtashman'
p1052
tp1053
(lp1054
(lp1055
S'2016-10-14 18:42:55'
p1056
aS'3744'
p1057
aS'Please write an expression, not the final numerical result.'
p1058
aas(g71
S'gstamp'
p1059
tp1060
(lp1061
(lp1062
S'2016-10-14 17:27:03'
p1063
ag1
aS'Please write an expression, not the final numerical result.'
p1064
aa(lp1065
S'2016-10-14 17:27:25'
p1066
aS'4!/2!'
p1067
aS'Please write an expression, not the final numerical result.'
p1068
aa(lp1069
S'2016-10-14 17:28:16'
p1070
aS'12'
p1071
aS'Please write an expression, not the final numerical result.'
p1072
aas(g401
S'DRavida'
p1073
tp1074
(lp1075
(lp1076
S'2016-10-14 18:38:31'
p1077
aS'12'
p1078
aS'Please write an expression, not the final numerical result.'
p1079
aass(g2
g2
g3
tp1080
(dp1081
(S'244'
p1082
S'amt040'
p1083
tp1084
(lp1085
(lp1086
S'2016-10-11 23:35:23'
p1087
aS'no attempt'
p1088
aS'Please write an expression, not the final numerical result.'
p1089
aa(lp1090
S'2016-10-11 23:35:26'
p1091
aS'no attempt'
p1092
aS'Please write an expression, not the final numerical result.'
p1093
aa(lp1094
S'2016-10-12 00:37:18'
p1095
aS'no attempt'
p1096
aS'Please write an expression, not the final numerical result.'
p1097
aas(g259
S'Darthsneak'
p1098
tp1099
(lp1100
(lp1101
S'2016-10-14 09:22:01'
p1102
aS'no attempt'
p1103
aS'Please write an expression, not the final numerical result.'
p1104
aa(lp1105
S'2016-10-14 09:24:27'
p1106
aS'no attempt'
p1107
aS'Please write an expression, not the final numerical result.'
p1108
aa(lp1109
S'2016-10-14 09:24:34'
p1110
aS'no attempt'
p1111
aS'Please write an expression, not the final numerical result.'
p1112
aa(lp1113
S'2016-10-14 09:24:35'
p1114
aS'no attempt'
p1115
aS'Please write an expression, not the final numerical result.'
p1116
aa(lp1117
S'2016-10-14 09:24:35'
p1118
aS'no attempt'
p1119
aS'Please write an expression, not the final numerical result.'
p1120
aa(lp1121
S'2016-10-14 09:24:36'
p1122
aS'no attempt'
p1123
aS'Please write an expression, not the final numerical result.'
p1124
aa(lp1125
S'2016-10-14 09:24:36'
p1126
aS'no attempt'
p1127
aS'Please write an expression, not the final numerical result.'
p1128
aa(lp1129
S'2016-10-14 09:24:37'
p1130
aS'no attempt'
p1131
aS'Please write an expression, not the final numerical result.'
p1132
aa(lp1133
S'2016-10-14 09:24:37'
p1134
aS'no attempt'
p1135
aS'Please write an expression, not the final numerical result.'
p1136
aa(lp1137
S'2016-10-14 09:24:37'
p1138
aS'no attempt'
p1139
aS'Please write an expression, not the final numerical result.'
p1140
aa(lp1141
S'2016-10-14 09:24:38'
p1142
aS'no attempt'
p1143
aS'Please write an expression, not the final numerical result.'
p1144
aa(lp1145
S'2016-10-14 09:24:38'
p1146
aS'no attempt'
p1147
aS'Please write an expression, not the final numerical result.'
p1148
aas(S'216'
p1149
S'Shiyuc'
p1150
tp1151
(lp1152
(lp1153
S'2016-10-12 20:37:07'
p1154
aS'no attempt'
p1155
aS'Please write an expression, not the final numerical result.'
p1156
aas(S'271'
p1157
S'WilliamZhu'
p1158
tp1159
(lp1160
(lp1161
S'2016-10-14 09:24:33'
p1162
aS'no attempt'
p1163
aS'Please write an expression, not the final numerical result.'
p1164
aas(S'41'
p1165
S'Khang_Vinh'
p1166
tp1167
(lp1168
(lp1169
S'2016-10-12 21:26:36'
p1170
aS'no attempt'
p1171
aS'Please write an expression, not the final numerical result.'
p1172
aas(S'42'
p1173
S'wangpin'
p1174
tp1175
(lp1176
(lp1177
S'2016-10-12 22:03:41'
p1178
aS'no attempt'
p1179
aS'Can the answer be fractional?'
p1180
aas(g401
S'DRavida'
p1181
tp1182
(lp1183
(lp1184
S'2016-10-14 10:33:06'
p1185
aS'no attempt'
p1186
aS'Please write an expression, not the final numerical result.'
p1187
aas(S'91'
p1188
S'woguan'
p1189
tp1190
(lp1191
(lp1192
S'2016-10-11 23:15:17'
p1193
aS'no attempt'
p1194
aS'Please write an expression, not the final numerical result.'
p1195
aa(lp1196
S'2016-10-11 23:16:42'
p1197
aS'no attempt'
p1198
aS'Please write an expression, not the final numerical result.'
p1199
aas(g516
S'danFlorencio'
p1200
tp1201
(lp1202
(lp1203
S'2016-10-14 10:47:32'
p1204
aS'no attempt'
p1205
aS'Please write an expression, not the final numerical result.'
p1206
aas(S'228'
p1207
S'shh176'
p1208
tp1209
(lp1210
(lp1211
S'2016-10-12 00:47:43'
p1212
aS'no attempt'
p1213
aS'Please write an expression, not the final numerical result.'
p1214
aas(g267
S'shravangrandhi'
p1215
tp1216
(lp1217
(lp1218
S'2016-10-14 09:32:46'
p1219
aS'no attempt'
p1220
aS'Please write an expression, not the final numerical result.'
p1221
aa(lp1222
S'2016-10-14 09:34:01'
p1223
aS'no attempt'
p1224
aS'Please write an expression, not the final numerical result.'
p1225
aas(g427
S'gurkiratsingh'
p1226
tp1227
(lp1228
(lp1229
S'2016-10-14 07:42:28'
p1230
aS'no attempt'
p1231
aS'Please write an expression, not the final numerical result.'
p1232
aas(S'321'
p1233
S'Sync'
p1234
tp1235
(lp1236
(lp1237
S'2016-10-14 09:15:00'
p1238
aS'no attempt'
p1239
aS'Please write an expression, not the final numerical result.'
p1240
aas(g275
S'rdabir'
p1241
tp1242
(lp1243
(lp1244
S'2016-10-14 09:49:38'
p1245
aS'no attempt'
p1246
aS'Please write an expression, not the final numerical result.'
p1247
aas(S'231'
p1248
S'Guillermo'
p1249
tp1250
(lp1251
(lp1252
S'2016-10-11 22:36:13'
p1253
aS'no attempt'
p1254
aS'Please write an expression, not the final numerical result.'
p1255
aas(S'181'
p1256
S'EricO'
p1257
tp1258
(lp1259
(lp1260
S'2016-10-14 07:41:52'
p1261
aS'no attempt'
p1262
aS'Please write an expression, not the final numerical result.'
p1263
aas(S'37'
p1264
S'aliceh'
p1265
tp1266
(lp1267
(lp1268
S'2016-10-12 21:59:07'
p1269
aS'no attempt'
p1270
aS'Please write an expression, not the final numerical result.'
p1271
aa(lp1272
S'2016-10-12 21:59:08'
p1273
aS'no attempt'
p1274
aS'Please write an expression, not the final numerical result.'
p1275
aas(S'193'
p1276
S'maddymanu'
p1277
tp1278
(lp1279
(lp1280
S'2016-10-12 20:45:52'
p1281
aS'no attempt'
p1282
aS'Please write an expression, not the final numerical result.'
p1283
aass(g27
g3
g1
tp1284
(dp1285
(g197
S'ccaine'
p1286
tp1287
(lp1288
(lp1289
S'2016-10-14 19:58:30'
p1290
aS'0.956054687'
p1291
aS'Please write an expression, not the final numerical result.'
p1292
aas(g61
S'pgupta'
p1293
tp1294
(lp1295
(lp1296
S'2016-10-15 00:11:11'
p1297
aS'2 - 2^10'
p1298
aS'Can the answer be negative?'
p1299
aass(g27
g51
g2
tp1300
(dp1301
(S'330'
p1302
S'zjteoh'
p1303
tp1304
(lp1305
(lp1306
S'2016-10-14 19:41:30'
p1307
ag3
aS'Please write an expression, not the final numerical result.'
p1308
aa(lp1309
S'2016-10-14 19:47:17'
p1310
ag3
aS'Please write an expression, not the final numerical result.'
p1311
aa(lp1312
S'2016-10-14 19:48:23'
p1313
ag1
aS'Please write an expression, not the final numerical result.'
p1314
aa(lp1315
S'2016-10-14 19:52:45'
p1316
ag3
aS'Please write an expression, not the final numerical result.'
p1317
aa(lp1318
S'2016-10-14 22:37:33'
p1319
ag2
aS'Please write an expression, not the final numerical result.'
p1320
aa(lp1321
S'2016-10-14 22:42:21'
p1322
ag27
aS'Please write an expression, not the final numerical result.'
p1323
aas(g224
S'Jyrodgers'
p1324
tp1325
(lp1326
(lp1327
S'2016-10-14 19:51:14'
p1328
aS'240'
p1329
aS'Please write an expression, not the final numerical result.'
p1330
aa(lp1331
S'2016-10-14 22:15:16'
p1332
ag3
aS'Please write an expression, not the final numerical result.'
p1333
aas(g1024
S'bhaveshnibber'
p1334
tp1335
(lp1336
(lp1337
S'2016-10-14 19:45:13'
p1338
ag210
aS'Please write an expression, not the final numerical result.'
p1339
aas(S'347'
p1340
S'jefferyw'
p1341
tp1342
(lp1343
(lp1344
S'2016-10-14 22:41:52'
p1345
ag115
aS'Please write an expression, not the final numerical result.'
p1346
aas(g883
S'kennyglee'
p1347
tp1348
(lp1349
(lp1350
S'2016-10-14 16:10:08'
p1351
ag1
aS'Please write an expression, not the final numerical result.'
p1352
aass(g27
g2
g3
tp1353
(dp1354
(g333
S'Brnkvu'
p1355
tp1356
(lp1357
(lp1358
S'2016-10-14 22:26:31'
p1359
aS'(C(4,1)*C(13,3))/C(52,3)'
p1360
aS'Can the answer be fractional?'
p1361
aas(g61
S'pgupta'
p1362
tp1363
(lp1364
(lp1365
S'2016-10-14 21:20:08'
p1366
aS'(13*1)/C(52,5)'
p1367
aS'Can the answer be fractional?'
p1368
aas(g341
S'AndyYeung'
p1369
tp1370
(lp1371
(lp1372
S'2016-10-14 21:07:36'
p1373
ag339
aS'Please write an expression, not the final numerical result.'
p1374
aas(S'180'
p1375
S'rshroyer'
p1376
tp1377
(lp1378
(lp1379
S'2016-10-14 21:14:13'
p1380
aS'720'
p1381
aS'Please write an expression, not the final numerical result.'
p1382
aa(lp1383
S'2016-10-14 21:14:29'
p1384
aS'120'
p1385
aS'Please write an expression, not the final numerical result.'
p1386
aas(g355
S'a9zhao'
p1387
tp1388
(lp1389
(lp1390
S'2016-10-14 20:50:57'
p1391
aS'14'
p1392
aS'Please write an expression, not the final numerical result.'
p1393
aas(g1340
S'jefferyw'
p1394
tp1395
(lp1396
(lp1397
S'2016-10-15 00:01:05'
p1398
aS'11'
p1399
aS'Please write an expression, not the final numerical result.'
p1400
aa(lp1401
S'2016-10-15 00:01:06'
p1402
aS'11'
p1403
aS'Please write an expression, not the final numerical result.'
p1404
aas(g136
S'karl-rummler'
p1405
tp1406
(lp1407
(lp1408
S'2016-10-14 20:43:18'
p1409
aS'10'
p1410
aS'Please write an expression, not the final numerical result.'
p1411
aa(lp1412
S'2016-10-14 20:48:09'
p1413
ag339
aS'Please write an expression, not the final numerical result.'
p1414
aas(S'38'
p1415
S'NicoleStone'
p1416
tp1417
(lp1418
(lp1419
S'2016-10-14 18:31:25'
p1420
ag3
aS'Please write an expression, not the final numerical result.'
p1421
aa(lp1422
S'2016-10-14 18:35:02'
p1423
ag3
aS'Please write an expression, not the final numerical result.'
p1424
aas(g182
S'ChenquanJiang'
p1425
tp1426
(lp1427
(lp1428
S'2016-10-14 07:59:41'
p1429
aS'15'
p1430
aS'Please write an expression, not the final numerical result.'
p1431
aa(lp1432
S'2016-10-14 23:26:49'
p1433
ag339
aS'Please write an expression, not the final numerical result.'
p1434
aa(lp1435
S'2016-10-14 23:28:37'
p1436
aS'120'
p1437
aS'Please write an expression, not the final numerical result.'
p1438
aas(S'79'
p1439
S'DongyoonHan'
p1440
tp1441
(lp1442
(lp1443
S'2016-10-14 18:17:59'
p1444
ag607
aS'Please write an expression, not the final numerical result.'
p1445
aas(S'302'
p1446
S'g5park'
p1447
tp1448
(lp1449
(lp1450
S'2016-10-14 19:03:41'
p1451
ag115
aS'Please write an expression, not the final numerical result.'
p1452
aas(g924
S'axl004'
p1453
tp1454
(lp1455
(lp1456
S'2016-10-15 00:32:45'
p1457
aS'12'
p1458
aS'Please write an expression, not the final numerical result.'
p1459
aas(g516
S'danFlorencio'
p1460
tp1461
(lp1462
(lp1463
S'2016-10-14 22:57:50'
p1464
aS'11'
p1465
aS'Please write an expression, not the final numerical result.'
p1466
aas(g71
S'gstamp'
p1467
tp1468
(lp1469
(lp1470
S'2016-10-14 17:33:06'
p1471
aS'120'
p1472
aS'Please write an expression, not the final numerical result.'
p1473
aas(g242
S'yaojeffrey'
p1474
tp1475
(lp1476
(lp1477
S'2016-10-14 22:02:27'
p1478
aS'57'
p1479
aS'Please write an expression, not the final numerical result.'
p1480
aas(S'56'
p1481
S'safarsi'
p1482
tp1483
(lp1484
(lp1485
S'2016-10-14 18:02:05'
p1486
aS'12'
p1487
aS'Please write an expression, not the final numerical result.'
p1488
aas(S'184'
p1489
S'szh'
p1490
tp1491
(lp1492
(lp1493
S'2016-10-12 21:35:29'
p1494
aS'720'
p1495
aS'Please write an expression, not the final numerical result.'
p1496
aas(g446
S'JaceChan'
p1497
tp1498
(lp1499
(lp1500
S'2016-10-12 21:34:43'
p1501
aS'210'
p1502
aS'Please write an expression, not the final numerical result.'
p1503
aa(lp1504
S'2016-10-14 23:45:38'
p1505
aS'10'
p1506
aS'Please write an expression, not the final numerical result.'
p1507
aas(S'299'
p1508
S'MarianCrofts'
p1509
tp1510
(lp1511
(lp1512
S'2016-10-14 22:58:36'
p1513
aS'10'
p1514
aS'Please write an expression, not the final numerical result.'
p1515
aas(g466
S'mninette'
p1516
tp1517
(lp1518
(lp1519
S'2016-10-14 20:08:59'
p1520
ag210
aS'Please write an expression, not the final numerical result.'
p1521
aas(g38
S'PhillipJo'
p1522
tp1523
(lp1524
(lp1525
S'2016-10-14 21:18:22'
p1526
aS'10'
p1527
aS'Please write an expression, not the final numerical result.'
p1528
aas(g473
S'KimberlyLy'
p1529
tp1530
(lp1531
(lp1532
S'2016-10-14 19:07:55'
p1533
aS'10'
p1534
aS'Please write an expression, not the final numerical result.'
p1535
aa(lp1536
S'2016-10-14 19:07:58'
p1537
aS'10'
p1538
aS'Please write an expression, not the final numerical result.'
p1539
aa(lp1540
S'2016-10-14 19:08:04'
p1541
aS'10'
p1542
aS'Please write an expression, not the final numerical result.'
p1543
aas(g1024
S'bhaveshnibber'
p1544
tp1545
(lp1546
(lp1547
S'2016-10-14 21:57:14'
p1548
ag115
aS'Please write an expression, not the final numerical result.'
p1549
aas(S'295'
p1550
S'xzy0207'
p1551
tp1552
(lp1553
(lp1554
S'2016-10-15 00:16:57'
p1555
aS'15'
p1556
aS'Please write an expression, not the final numerical result.'
p1557
aas(g489
S'whcombs'
p1558
tp1559
(lp1560
(lp1561
S'2016-10-14 17:01:29'
p1562
aS'11'
p1563
aS'Please write an expression, not the final numerical result.'
p1564
aas(S'334'
p1565
S'yash'
p1566
tp1567
(lp1568
(lp1569
S'2016-10-14 21:47:12'
p1570
aS'10'
p1571
aS'Please write an expression, not the final numerical result.'
p1572
aas(g496
S'ottojursch'
p1573
tp1574
(lp1575
(lp1576
S'2016-10-14 20:01:40'
p1577
aS'15'
p1578
aS'Please write an expression, not the final numerical result.'
p1579
aa(lp1580
S'2016-10-14 20:04:15'
p1581
aS'243'
p1582
aS'Please write an expression, not the final numerical result.'
p1583
aas(g259
S'Darthsneak'
p1584
tp1585
(lp1586
(lp1587
S'2016-10-14 20:01:40'
p1588
aS'10'
p1589
aS'Please write an expression, not the final numerical result.'
p1590
aas(S'227'
p1591
S'raghavmehta1996'
p1592
tp1593
(lp1594
(lp1595
S'2016-10-15 00:24:28'
p1596
aS'10'
p1597
aS'Please write an expression, not the final numerical result.'
p1598
aas(g197
S'ccaine'
p1599
tp1600
(lp1601
(lp1602
S'2016-10-14 19:43:30'
p1603
aS'11'
p1604
aS'Please write an expression, not the final numerical result.'
p1605
aas(S'162'
p1606
S'Arash'
p1607
tp1608
(lp1609
(lp1610
S'2016-10-15 00:47:43'
p1611
aS'15'
p1612
aS'Please write an expression, not the final numerical result.'
p1613
aas(g675
S'cwasley'
p1614
tp1615
(lp1616
(lp1617
S'2016-10-15 00:47:26'
p1618
aS'10'
p1619
aS'Please write an expression, not the final numerical result.'
p1620
aas(g533
S'nolin'
p1621
tp1622
(lp1623
(lp1624
S'2016-10-14 22:35:53'
p1625
aS'P(6,6)/8'
p1626
aS'Can the answer be fractional?'
p1627
aa(lp1628
S'2016-10-14 22:47:10'
p1629
aS'P(6,6)/(3!2!)'
p1630
aS'Can the answer be fractional?'
p1631
aas(g688
S'JessKwok'
p1632
tp1633
(lp1634
(lp1635
S'2016-10-14 18:00:42'
p1636
aS'12'
p1637
aS'Please write an expression, not the final numerical result.'
p1638
aa(lp1639
S'2016-10-14 18:05:49'
p1640
aS'14'
p1641
aS'Please write an expression, not the final numerical result.'
p1642
aas(g267
S'shravangrandhi'
p1643
tp1644
(lp1645
(lp1646
S'2016-10-14 20:33:45'
p1647
aS'110'
p1648
aS'Please write an expression, not the final numerical result.'
p1649
aa(lp1650
S'2016-10-14 20:50:28'
p1651
aS'10'
p1652
aS'Please write an expression, not the final numerical result.'
p1653
aas(g592
S'Derrick'
p1654
tp1655
(lp1656
(lp1657
S'2016-10-14 22:28:10'
p1658
aS'11'
p1659
aS'Please write an expression, not the final numerical result.'
p1660
aas(g212
S'BrianaW'
p1661
tp1662
(lp1663
(lp1664
S'2016-10-14 21:30:37'
p1665
aS'6!/3!2!2!'
p1666
aS'Please write an expression, not the final numerical result.'
p1667
aass(g27
g339
g27
tp1668
(dp1669
(g333
S'Brnkvu'
p1670
tp1671
(lp1672
(lp1673
S'2016-10-14 20:28:10'
p1674
ag339
aS'Please write an expression, not the final numerical result.'
p1675
aas(g341
S'AndyYeung'
p1676
tp1677
(lp1678
(lp1679
S'2016-10-14 19:29:39'
p1680
aS'2601/(26*25)'
p1681
aS'Can the answer be fractional?'
p1682
aa(lp1683
S'2016-10-14 19:33:39'
p1684
ag339
aS'Please write an expression, not the final numerical result.'
p1685
aas(g355
S'a9zhao'
p1686
tp1687
(lp1688
(lp1689
S'2016-10-14 17:36:07'
p1690
ag339
aS'Please write an expression, not the final numerical result.'
p1691
aas(S'29'
p1692
S'rjanowit'
p1693
tp1694
(lp1695
(lp1696
S'2016-10-14 23:25:26'
p1697
ag3
aS'Please write an expression, not the final numerical result.'
p1698
aa(lp1699
S'2016-10-14 23:34:29'
p1700
ag115
aS'Please write an expression, not the final numerical result.'
p1701
aas(g91
S'nanguian'
p1702
tp1703
(lp1704
(lp1705
S'2016-10-14 18:53:22'
p1706
ag339
aS'Please write an expression, not the final numerical result.'
p1707
aas(g644
S'kkhuong'
p1708
tp1709
(lp1710
(lp1711
S'2016-10-14 20:06:04'
p1712
aS'3251'
p1713
aS'Please write an expression, not the final numerical result.'
p1714
aas(g136
S'karl-rummler'
p1715
tp1716
(lp1717
(lp1718
S'2016-10-14 21:03:14'
p1719
aS'3901'
p1720
aS'Please write an expression, not the final numerical result.'
p1721
aa(lp1722
S'2016-10-14 21:15:30'
p1723
aS'2602'
p1724
aS'Please write an expression, not the final numerical result.'
p1725
aa(lp1726
S'2016-10-14 21:28:45'
p1727
ag3
aS'Please write an expression, not the final numerical result.'
p1728
aas(g53
S'CharlesCruz'
p1729
tp1730
(lp1731
(lp1732
S'2016-10-14 18:31:27'
p1733
aS'0'
p1734
aS'Please write an expression, not the final numerical result.'
p1735
aa(lp1736
S'2016-10-14 18:36:55'
p1737
aS'2600'
p1738
aS'Please write an expression, not the final numerical result.'
p1739
aa(lp1740
S'2016-10-14 18:41:58'
p1741
aS'150'
p1742
aS'Please write an expression, not the final numerical result.'
p1743
aa(lp1744
S'2016-10-14 18:42:51'
p1745
aS'2600'
p1746
aS'Please write an expression, not the final numerical result.'
p1747
aa(lp1748
S'2016-10-14 18:49:05'
p1749
aS'3901'
p1750
aS'Please write an expression, not the final numerical result.'
p1751
aa(lp1752
S'2016-10-14 18:51:31'
p1753
ag1
aS'Please write an expression, not the final numerical result.'
p1754
aa(lp1755
S'2016-10-14 19:01:51'
p1756
aS'3250'
p1757
aS'Please write an expression, not the final numerical result.'
p1758
aa(lp1759
S'2016-10-14 19:03:58'
p1760
ag339
aS'Please write an expression, not the final numerical result.'
p1761
aa(lp1762
S'2016-10-14 19:17:58'
p1763
aS'3251'
p1764
aS'Please write an expression, not the final numerical result.'
p1765
aa(lp1766
S'2016-10-14 19:21:49'
p1767
aS'3251'
p1768
aS'Please write an expression, not the final numerical result.'
p1769
aa(lp1770
S'2016-10-14 19:22:12'
p1771
aS'3250'
p1772
aS'Please write an expression, not the final numerical result.'
p1773
aa(lp1774
S'2016-10-14 19:22:13'
p1775
aS'3250'
p1776
aS'Please write an expression, not the final numerical result.'
p1777
aa(lp1778
S'2016-10-14 19:22:53'
p1779
aS'3251'
p1780
aS'Please write an expression, not the final numerical result.'
p1781
aa(lp1782
S'2016-10-14 19:23:22'
p1783
aS'3902'
p1784
aS'Please write an expression, not the final numerical result.'
p1785
aa(lp1786
S'2016-10-14 19:23:47'
p1787
aS'3901-((j*P(26,2))+1)'
p1788
aS'Please write an expression, not the final numerical result.'
p1789
aa(lp1790
S'2016-10-14 19:33:36'
p1791
ag339
aS'Please write an expression, not the final numerical result.'
p1792
aas(g784
S'arman'
p1793
tp1794
(lp1795
(lp1796
S'2016-10-14 22:32:53'
p1797
ag115
aS'Please write an expression, not the final numerical result.'
p1798
aas(g924
S'axl004'
p1799
tp1800
(lp1801
(lp1802
S'2016-10-14 23:26:25'
p1803
ag1
aS'Please write an expression, not the final numerical result.'
p1804
aa(lp1805
S'2016-10-14 23:26:59'
p1806
aS'3901/(26*25)'
p1807
aS'Can the answer be fractional?'
p1808
aas(g242
S'yaojeffrey'
p1809
tp1810
(lp1811
(lp1812
S'2016-10-14 22:50:54'
p1813
ag1
aS'Please write an expression, not the final numerical result.'
p1814
aa(lp1815
S'2016-10-14 22:52:46'
p1816
ag339
aS'Please write an expression, not the final numerical result.'
p1817
aas(S'49'
p1818
S'jwdavies'
p1819
tp1820
(lp1821
(lp1822
S'2016-10-14 18:52:44'
p1823
aS'3251'
p1824
aS'Please write an expression, not the final numerical result.'
p1825
aas(g473
S'KimberlyLy'
p1826
tp1827
(lp1828
(lp1829
S'2016-10-14 17:41:17'
p1830
ag1
aS'Please write an expression, not the final numerical result.'
p1831
aa(lp1832
S'2016-10-14 17:41:25'
p1833
ag1
aS'Please write an expression, not the final numerical result.'
p1834
aa(lp1835
S'2016-10-14 17:42:50'
p1836
aS'(3251)/(26 * 25)'
p1837
aS'Can the answer be fractional?'
p1838
aas(g806
S'smkurtz'
p1839
tp1840
(lp1841
(lp1842
S'2016-10-14 21:02:56'
p1843
ag339
aS'Please write an expression, not the final numerical result.'
p1844
aas(g251
S'jewidjaj'
p1845
tp1846
(lp1847
(lp1848
S'2016-10-14 16:35:14'
p1849
aS'3901'
p1850
aS'Please write an expression, not the final numerical result.'
p1851
aa(lp1852
S'2016-10-14 16:35:16'
p1853
aS'3901'
p1854
aS'Please write an expression, not the final numerical result.'
p1855
aa(lp1856
S'2016-10-14 16:35:17'
p1857
aS'3901'
p1858
aS'Please write an expression, not the final numerical result.'
p1859
aas(g496
S'ottojursch'
p1860
tp1861
(lp1862
(lp1863
S'2016-10-14 21:05:55'
p1864
ag1
aS'Please write an expression, not the final numerical result.'
p1865
aas(g323
S'gtran'
p1866
tp1867
(lp1868
(lp1869
S'2016-10-14 21:46:56'
p1870
aS'12'
p1871
aS'Please write an expression, not the final numerical result.'
p1872
aas(g224
S'Jyrodgers'
p1873
tp1874
(lp1875
(lp1876
S'2016-10-14 20:39:27'
p1877
aS'1300'
p1878
aS'Please write an expression, not the final numerical result.'
p1879
aa(lp1880
S'2016-10-14 21:53:45'
p1881
aS'50'
p1882
aS'Please write an expression, not the final numerical result.'
p1883
aa(lp1884
S'2016-10-14 21:53:45'
p1885
aS'50'
p1886
aS'Please write an expression, not the final numerical result.'
p1887
aa(lp1888
S'2016-10-14 22:06:44'
p1889
aS'56'
p1890
aS'Please write an expression, not the final numerical result.'
p1891
aas(g533
S'nolin'
p1892
tp1893
(lp1894
(lp1895
S'2016-10-14 23:34:19'
p1896
ag339
aS'Please write an expression, not the final numerical result.'
p1897
aas(g197
S'ccaine'
p1898
tp1899
(lp1900
(lp1901
S'2016-10-14 18:17:00'
p1902
ag115
aS'Please write an expression, not the final numerical result.'
p1903
aas(g675
S'cwasley'
p1904
tp1905
(lp1906
(lp1907
S'2016-10-14 23:46:51'
p1908
ag1
aS'Please write an expression, not the final numerical result.'
p1909
aas(g204
S'wesleymwong'
p1910
tp1911
(lp1912
(lp1913
S'2016-10-14 20:34:14'
p1914
aS'C(26,2)-3251'
p1915
aS'Can the answer be negative?'
p1916
aa(lp1917
S'2016-10-14 20:56:23'
p1918
aS'2601 / P(26,2)'
p1919
aS'Can the answer be fractional?'
p1920
aa(lp1921
S'2016-10-14 20:58:01'
p1922
ag115
aS'Please write an expression, not the final numerical result.'
p1923
aas(S'99'
p1924
S'shadams'
p1925
tp1926
(lp1927
(lp1928
S'2016-10-14 15:45:30'
p1929
ag1
aS'Please write an expression, not the final numerical result.'
p1930
aas(g592
S'Derrick'
p1931
tp1932
(lp1933
(lp1934
S'2016-10-14 18:59:57'
p1935
ag339
aS'Please write an expression, not the final numerical result.'
p1936
aass(g27
g2
g27
tp1937
(dp1938
(g61
S'pgupta'
p1939
tp1940
(lp1941
(lp1942
S'2016-10-14 21:20:14'
p1943
aS'13'
p1944
aS'Please write an expression, not the final numerical result.'
p1945
aas(g45
S'j2chang'
p1946
tp1947
(lp1948
(lp1949
S'2016-10-14 21:27:34'
p1950
aS'13'
p1951
aS'Please write an expression, not the final numerical result.'
p1952
aas(g523
S'RodrigoM'
p1953
tp1954
(lp1955
(lp1956
S'2016-10-14 23:09:42'
p1957
aS'13'
p1958
aS'Please write an expression, not the final numerical result.'
p1959
aas(g355
S'a9zhao'
p1960
tp1961
(lp1962
(lp1963
S'2016-10-14 18:45:26'
p1964
ag51
aS'Please write an expression, not the final numerical result.'
p1965
aa(lp1966
S'2016-10-14 21:43:54'
p1967
aS'13'
p1968
aS'Please write an expression, not the final numerical result.'
p1969
aas(g1692
S'rjanowit'
p1970
tp1971
(lp1972
(lp1973
S'2016-10-15 00:49:16'
p1974
aS'13'
p1975
aS'Please write an expression, not the final numerical result.'
p1976
aas(g91
S'nanguian'
p1977
tp1978
(lp1979
(lp1980
S'2016-10-14 22:18:48'
p1981
aS'13'
p1982
aS'Please write an expression, not the final numerical result.'
p1983
aas(g644
S'kkhuong'
p1984
tp1985
(lp1986
(lp1987
S'2016-10-14 17:24:54'
p1988
aS'13'
p1989
aS'Please write an expression, not the final numerical result.'
p1990
aas(g305
S'URajkumar'
p1991
tp1992
(lp1993
(lp1994
S'2016-10-14 22:09:46'
p1995
aS'14'
p1996
aS'Please write an expression, not the final numerical result.'
p1997
aas(g136
S'karl-rummler'
p1998
tp1999
(lp2000
(lp2001
S'2016-10-14 20:21:30'
p2002
aS'13'
p2003
aS'Please write an expression, not the final numerical result.'
p2004
aas(g53
S'CharlesCruz'
p2005
tp2006
(lp2007
(lp2008
S'2016-10-14 22:17:25'
p2009
ag2
aS'Please write an expression, not the final numerical result.'
p2010
aas(g401
S'DRavida'
p2011
tp2012
(lp2013
(lp2014
S'2016-10-15 00:02:44'
p2015
aS'14'
p2016
aS'Please write an expression, not the final numerical result.'
p2017
aas(g784
S'arman'
p2018
tp2019
(lp2020
(lp2021
S'2016-10-15 00:03:19'
p2022
aS'13'
p2023
aS'Please write an expression, not the final numerical result.'
p2024
aa(lp2025
S'2016-10-15 00:05:40'
p2026
aS'13'
p2027
aS'Please write an expression, not the final numerical result.'
p2028
aa(lp2029
S'2016-10-15 00:42:39'
p2030
aS'42'
p2031
aS'Please write an expression, not the final numerical result.'
p2032
aas(g560
S'msp'
p2033
tp2034
(lp2035
(lp2036
S'2016-10-14 22:05:03'
p2037
aS'13'
p2038
aS'Please write an expression, not the final numerical result.'
p2039
aa(lp2040
S'2016-10-14 22:28:17'
p2041
aS'13'
p2042
aS'Please write an expression, not the final numerical result.'
p2043
aas(g1340
S'jefferyw'
p2044
tp2045
(lp2046
(lp2047
S'2016-10-14 23:35:06'
p2048
ag27
aS'Please write an expression, not the final numerical result.'
p2049
aas(g623
S'anMihaly'
p2050
tp2051
(lp2052
(lp2053
S'2016-10-14 22:27:42'
p2054
aS'13'
p2055
aS'Please write an expression, not the final numerical result.'
p2056
aas(g924
S'axl004'
p2057
tp2058
(lp2059
(lp2060
S'2016-10-15 00:10:20'
p2061
ag2
aS'Please write an expression, not the final numerical result.'
p2062
aa(lp2063
S'2016-10-15 00:23:34'
p2064
ag2
aS'Please write an expression, not the final numerical result.'
p2065
aa(lp2066
S'2016-10-15 00:23:35'
p2067
ag2
aS'Please write an expression, not the final numerical result.'
p2068
aa(lp2069
S'2016-10-15 00:32:48'
p2070
aS'11'
p2071
aS'Please write an expression, not the final numerical result.'
p2072
aa(lp2073
S'2016-10-15 00:32:48'
p2074
aS'11'
p2075
aS'Please write an expression, not the final numerical result.'
p2076
aas(g516
S'danFlorencio'
p2077
tp2078
(lp2079
(lp2080
S'2016-10-14 21:13:12'
p2081
aS'28561'
p2082
aS'Please write an expression, not the final numerical result.'
p2083
aas(g71
S'gstamp'
p2084
tp2085
(lp2086
(lp2087
S'2016-10-14 23:46:05'
p2088
aS'13'
p2089
aS'Please write an expression, not the final numerical result.'
p2090
aas(S'178'
p2091
S'kel116'
p2092
tp2093
(lp2094
(lp2095
S'2016-10-14 23:18:27'
p2096
aS'13'
p2097
aS'Please write an expression, not the final numerical result.'
p2098
aas(g1818
S'jwdavies'
p2099
tp2100
(lp2101
(lp2102
S'2016-10-14 20:43:49'
p2103
aS'13'
p2104
aS'Please write an expression, not the final numerical result.'
p2105
aas(g434
S'Nikan_Aminian'
p2106
tp2107
(lp2108
(lp2109
S'2016-10-14 21:32:32'
p2110
aS'156'
p2111
aS'Please write an expression, not the final numerical result.'
p2112
aa(lp2113
S'2016-10-14 22:11:56'
p2114
aS'768'
p2115
aS'Please write an expression, not the final numerical result.'
p2116
aa(lp2117
S'2016-10-14 22:13:23'
p2118
aS'324'
p2119
aS'Please write an expression, not the final numerical result.'
p2120
aas(g446
S'JaceChan'
p2121
tp2122
(lp2123
(lp2124
S'2016-10-14 23:08:16'
p2125
aS'13'
p2126
aS'Please write an expression, not the final numerical result.'
p2127
aas(g1508
S'MarianCrofts'
p2128
tp2129
(lp2130
(lp2131
S'2016-10-14 21:50:18'
p2132
aS'13'
p2133
aS'Please write an expression, not the final numerical result.'
p2134
aa(lp2135
S'2016-10-14 21:51:04'
p2136
aS'13'
p2137
aS'Please write an expression, not the final numerical result.'
p2138
aas(g453
S'FrankHuang'
p2139
tp2140
(lp2141
(lp2142
S'2016-10-14 16:30:55'
p2143
aS'13'
p2144
aS'Please write an expression, not the final numerical result.'
p2145
aa(lp2146
S'2016-10-14 16:30:57'
p2147
aS'13'
p2148
aS'Please write an expression, not the final numerical result.'
p2149
aas(g466
S'mninette'
p2150
tp2151
(lp2152
(lp2153
S'2016-10-14 19:32:01'
p2154
aS'11'
p2155
aS'Please write an expression, not the final numerical result.'
p2156
aas(g473
S'KimberlyLy'
p2157
tp2158
(lp2159
(lp2160
S'2016-10-14 18:09:27'
p2161
aS'13'
p2162
aS'Please write an expression, not the final numerical result.'
p2163
aa(lp2164
S'2016-10-14 18:09:28'
p2165
aS'13'
p2166
aS'Please write an expression, not the final numerical result.'
p2167
aa(lp2168
S'2016-10-14 19:08:03'
p2169
ag68
aS'Please write an expression, not the final numerical result.'
p2170
aas(S'265'
p2171
S'NickWong'
p2172
tp2173
(lp2174
(lp2175
S'2016-10-14 18:27:19'
p2176
ag1
aS'Please write an expression, not the final numerical result.'
p2177
aas(g251
S'jewidjaj'
p2178
tp2179
(lp2180
(lp2181
S'2016-10-14 17:04:40'
p2182
aS'13'
p2183
aS'Please write an expression, not the final numerical result.'
p2184
aas(g496
S'ottojursch'
p2185
tp2186
(lp2187
(lp2188
S'2016-10-14 20:45:38'
p2189
aS'13'
p2190
aS'Please write an expression, not the final numerical result.'
p2191
aa(lp2192
S'2016-10-14 21:57:55'
p2193
aS'13'
p2194
aS'Please write an expression, not the final numerical result.'
p2195
aas(g508
S'heitorschueroff'
p2196
tp2197
(lp2198
(lp2199
S'2016-10-14 19:19:27'
p2200
aS'13'
p2201
aS'Please write an expression, not the final numerical result.'
p2202
aa(lp2203
S'2016-10-14 19:21:26'
p2204
aS'13'
p2205
aS'Please write an expression, not the final numerical result.'
p2206
aa(lp2207
S'2016-10-14 23:04:59'
p2208
aS'P(5,5) - P'
p2209
aS'Can the answer be negative?'
p2210
aas(g1302
S'zjteoh'
p2211
tp2212
(lp2213
(lp2214
S'2016-10-14 20:37:55'
p2215
aS'13'
p2216
aS'Please write an expression, not the final numerical result.'
p2217
aa(lp2218
S'2016-10-14 20:54:21'
p2219
aS'13'
p2220
aS'Please write an expression, not the final numerical result.'
p2221
aas(g489
S'whcombs'
p2222
tp2223
(lp2224
(lp2225
S'2016-10-14 16:22:38'
p2226
aS'13'
p2227
aS'Please write an expression, not the final numerical result.'
p2228
aas(g172
S'Max'
p2229
tp2230
(lp2231
(lp2232
S'2016-10-14 16:14:49'
p2233
aS'13'
p2234
aS'Please write an expression, not the final numerical result.'
p2235
aa(lp2236
S'2016-10-14 16:14:50'
p2237
aS'13'
p2238
aS'Please write an expression, not the final numerical result.'
p2239
aa(lp2240
S'2016-10-14 19:48:14'
p2241
aS'12'
p2242
aS'Please write an expression, not the final numerical result.'
p2243
aas(g533
S'nolin'
p2244
tp2245
(lp2246
(lp2247
S'2016-10-15 00:14:42'
p2248
aS'13'
p2249
aS'Please write an expression, not the final numerical result.'
p2250
aas(g197
S'ccaine'
p2251
tp2252
(lp2253
(lp2254
S'2016-10-14 19:02:50'
p2255
aS'13'
p2256
aS'Please write an expression, not the final numerical result.'
p2257
aa(lp2258
S'2016-10-14 19:06:24'
p2259
aS'13'
p2260
aS'Please write an expression, not the final numerical result.'
p2261
aas(g1606
S'Arash'
p2262
tp2263
(lp2264
(lp2265
S'2016-10-15 00:32:32'
p2266
aS'13'
p2267
aS'Please write an expression, not the final numerical result.'
p2268
aas(g675
S'cwasley'
p2269
tp2270
(lp2271
(lp2272
S'2016-10-15 00:12:59'
p2273
aS'52'
p2274
aS'Please write an expression, not the final numerical result.'
p2275
aa(lp2276
S'2016-10-15 00:13:57'
p2277
aS'169'
p2278
aS'Please write an expression, not the final numerical result.'
p2279
aas(g540
S'jarninfang'
p2280
tp2281
(lp2282
(lp2283
S'2016-10-14 22:06:56'
p2284
aS'13'
p2285
aS'Please write an expression, not the final numerical result.'
p2286
aas(g204
S'wesleymwong'
p2287
tp2288
(lp2289
(lp2290
S'2016-10-14 20:14:23'
p2291
aS'13'
p2292
aS'Please write an expression, not the final numerical result.'
p2293
aa(lp2294
S'2016-10-14 20:14:25'
p2295
aS'13'
p2296
aS'Please write an expression, not the final numerical result.'
p2297
aa(lp2298
S'2016-10-14 23:59:03'
p2299
aS'13'
p2300
aS'Please write an expression, not the final numerical result.'
p2301
aa(lp2302
S'2016-10-14 23:59:04'
p2303
aS'13'
p2304
aS'Please write an expression, not the final numerical result.'
p2305
aas(g688
S'JessKwok'
p2306
tp2307
(lp2308
(lp2309
S'2016-10-14 18:05:47'
p2310
ag27
aS'Please write an expression, not the final numerical result.'
p2311
aas(g695
S'mtashman'
p2312
tp2313
(lp2314
(lp2315
S'2016-10-14 19:53:12'
p2316
aS'14'
p2317
aS'Please write an expression, not the final numerical result.'
p2318
aas(S'293'
p2319
S'isabella'
p2320
tp2321
(lp2322
(lp2323
S'2016-10-14 21:10:01'
p2324
aS'13'
p2325
aS'Please write an expression, not the final numerical result.'
p2326
aa(lp2327
S'2016-10-14 21:41:10'
p2328
aS'13'
p2329
aS'Please write an expression, not the final numerical result.'
p2330
aas(g30
S'djmoreno'
p2331
tp2332
(lp2333
(lp2334
S'2016-10-15 00:48:13'
p2335
aS'48'
p2336
aS'Please write an expression, not the final numerical result.'
p2337
aa(lp2338
S'2016-10-15 00:59:45'
p2339
aS'13'
p2340
aS'Please write an expression, not the final numerical result.'
p2341
aas(g578
S'KevinChrisayrton'
p2342
tp2343
(lp2344
(lp2345
S'2016-10-14 21:15:59'
p2346
aS'20'
p2347
aS'Please write an expression, not the final numerical result.'
p2348
aas(g212
S'BrianaW'
p2349
tp2350
(lp2351
(lp2352
S'2016-10-14 23:46:45'
p2353
aS'13'
p2354
aS'Please write an expression, not the final numerical result.'
p2355
aass(g3
g115
g2
tp2356
(dp2357
(S'6'
p2358
S'zhenzhai'
p2359
tp2360
(lp2361
(lp2362
S'2016-10-04 09:02:08'
p2363
aS'345'
p2364
aS'Please write an expression, not the final numerical result.'
p2365
aa(lp2366
S'2016-10-05 04:34:21'
p2367
aS'24'
p2368
aS'Please write an expression, not the final numerical result.'
p2369
aa(lp2370
S'2016-10-05 04:35:37'
p2371
aS'35'
p2372
aS'Please write an expression, not the final numerical result.'
p2373
aa(lp2374
S'2016-10-05 04:36:24'
p2375
ag1
aS'Please write an expression, not the final numerical result.'
p2376
aass(g27
g3
g339
tp2377
(dp2378
(g128
S'ETDuong'
p2379
tp2380
(lp2381
(lp2382
S'2016-10-14 19:49:39'
p2383
aS'2.82741888e-9'
p2384
aS'Can the answer be negative?'
p2385
aas(g355
S'a9zhao'
p2386
tp2387
(lp2388
(lp2389
S'2016-10-14 17:10:30'
p2390
aS'2.14129158e-8'
p2391
aS'Can the answer be negative?'
p2392
aas(S'96'
p2393
S'JonahCruz'
p2394
tp2395
(lp2396
(lp2397
S'2016-10-14 20:45:38'
p2398
aS'1-(((10!/((10-2)!2!))/2^10)+(10/2^10)+(1/2^10))*370'
p2399
aS'Can the answer be negative?'
p2400
aas(S'314'
p2401
S'zpreeces'
p2402
tp2403
(lp2404
(lp2405
S'2016-10-15 00:21:43'
p2406
aS'1-(383*(C(10,8)+C(10,9)+1)/(2^10))'
p2407
aS'Can the answer be negative?'
p2408
aas(g784
S'arman'
p2409
tp2410
(lp2411
(lp2412
S'2016-10-14 21:05:07'
p2413
aS'(1-(55/1024+1014/1024))*335'
p2414
aS'Can the answer be negative?'
p2415
aass(g1
g339
g2
tp2416
(dp2417
(S'351'
p2418
S'nicoleyfq'
p2419
tp2420
(lp2421
(lp2422
S'2016-10-19 18:01:55'
p2423
aS'no attempt'
p2424
aS'Can the answer be fractional?'
p2425
aa(lp2426
S'2016-10-19 18:02:26'
p2427
aS'no attempt'
p2428
aS'Can the answer be fractional?'
p2429
aass(g1
g3
g3
tp2430
(dp2431
(g118
S'thartopu'
p2432
tp2433
(lp2434
(lp2435
S'2016-10-19 11:21:38'
p2436
aS'no attempt'
p2437
aS'Please write an expression, not the final numerical result.'
p2438
aass(g2
g2
g2
tp2439
(dp2440
(S'67'
p2441
S'shuang'
p2442
tp2443
(lp2444
(lp2445
S'2016-10-12 00:57:43'
p2446
aS'no attempt'
p2447
aS'Please write an expression, not the final numerical result.'
p2448
aa(lp2449
S'2016-10-12 00:57:46'
p2450
aS'no attempt'
p2451
aS'Please write an expression, not the final numerical result.'
p2452
aas(g1082
S'amt040'
p2453
tp2454
(lp2455
(lp2456
S'2016-10-11 23:45:10'
p2457
aS'no attempt'
p2458
aS'Please write an expression, not the final numerical result.'
p2459
aas(g275
S'rdabir'
p2460
tp2461
(lp2462
(lp2463
S'2016-10-14 08:32:46'
p2464
aS'no attempt'
p2465
aS'Please write an expression, not the final numerical result.'
p2466
aa(lp2467
S'2016-10-14 09:10:16'
p2468
aS'no attempt'
p2469
aS'Please write an expression, not the final numerical result.'
p2470
aas(g446
S'JaceChan'
p2471
tp2472
(lp2473
(lp2474
S'2016-10-14 08:04:58'
p2475
aS'no attempt'
p2476
aS'Please write an expression, not the final numerical result.'
p2477
aas(g2358
S'zhenzhai'
p2478
tp2479
(lp2480
(lp2481
S'2016-10-11 22:40:45'
p2482
aS'no attempt'
p2483
aS'Please write an expression, not the final numerical result.'
p2484
aa(lp2485
S'2016-10-11 22:54:06'
p2486
aS'no attempt'
p2487
aS'Please write an expression, not the final numerical result.'
p2488
aas(S'92'
p2489
S'TianhaoQiu'
p2490
tp2491
(lp2492
(lp2493
S'2016-10-11 22:44:46'
p2494
aS'no attempt'
p2495
aS'Please write an expression, not the final numerical result.'
p2496
aa(lp2497
S'2016-10-11 22:44:50'
p2498
aS'no attempt'
p2499
aS'Please write an expression, not the final numerical result.'
p2500
aas(S'335'
p2501
S'sokunev'
p2502
tp2503
(lp2504
(lp2505
S'2016-10-14 10:15:34'
p2506
aS'no attempt'
p2507
aS'Can the answer be fractional?'
p2508
aas(g2171
S'NickWong'
p2509
tp2510
(lp2511
(lp2512
S'2016-10-14 08:01:03'
p2513
aS'no attempt'
p2514
aS'Please write an expression, not the final numerical result.'
p2515
aas(g1207
S'shh176'
p2516
tp2517
(lp2518
(lp2519
S'2016-10-11 23:50:48'
p2520
aS'no attempt'
p2521
aS'Please write an expression, not the final numerical result.'
p2522
aa(lp2523
S'2016-10-11 23:53:54'
p2524
aS'no attempt'
p2525
aS'Please write an expression, not the final numerical result.'
p2526
aas(g401
S'DRavida'
p2527
tp2528
(lp2529
(lp2530
S'2016-10-14 10:45:14'
p2531
aS'no attempt'
p2532
aS'Please write an expression, not the final numerical result.'
p2533
aas(S'72'
p2534
S'MattBowen96'
p2535
tp2536
(lp2537
(lp2538
S'2016-10-11 22:47:31'
p2539
aS'no attempt'
p2540
aS'Please write an expression, not the final numerical result.'
p2541
aas(S'94'
p2542
S'dzech'
p2543
tp2544
(lp2545
(lp2546
S'2016-10-12 08:12:26'
p2547
aS'no attempt'
p2548
aS'Please write an expression, not the final numerical result.'
p2549
aa(lp2550
S'2016-10-12 08:12:31'
p2551
aS'no attempt'
p2552
aS'Please write an expression, not the final numerical result.'
p2553
aas(g883
S'kennyglee'
p2554
tp2555
(lp2556
(lp2557
S'2016-10-14 08:05:00'
p2558
aS'no attempt'
p2559
aS'Please write an expression, not the final numerical result.'
p2560
aas(g592
S'Derrick'
p2561
tp2562
(lp2563
(lp2564
S'2016-10-14 08:29:43'
p2565
aS'no attempt'
p2566
aS'Please write an expression, not the final numerical result.'
p2567
aass(g1
g68
g2
tp2568
(dp2569
(g2418
S'nicoleyfq'
p2570
tp2571
(lp2572
(lp2573
S'2016-10-19 18:23:22'
p2574
aS'no attempt'
p2575
aS'Please write an expression, not the final numerical result.'
p2576
aass(g27
g3
g2
tp2577
(dp2578
(g38
S'PhillipJo'
p2579
tp2580
(lp2581
(lp2582
S'2016-10-14 19:10:18'
p2583
aS'0.233474441'
p2584
aS'Please write an expression, not the final numerical result.'
p2585
aas(g45
S'j2chang'
p2586
tp2587
(lp2588
(lp2589
S'2016-10-14 19:03:17'
p2590
aS'0.0439'
p2591
aS'Please write an expression, not the final numerical result.'
p2592
aass(g27
g210
g27
tp2593
(dp2594
(g516
S'danFlorencio'
p2595
tp2596
(lp2597
(lp2598
S'2016-10-14 11:56:07'
p2599
aS'56'
p2600
aS'Please write an expression, not the final numerical result.'
p2601
aa(lp2602
S'2016-10-14 11:58:23'
p2603
aS'36'
p2604
aS'Please write an expression, not the final numerical result.'
p2605
aa(lp2606
S'2016-10-14 11:59:51'
p2607
ag27
aS'Please write an expression, not the final numerical result.'
p2608
aa(lp2609
S'2016-10-14 12:00:53'
p2610
ag27
aS'Please write an expression, not the final numerical result.'
p2611
aa(lp2612
S'2016-10-14 12:01:25'
p2613
aS'1001'
p2614
aS'Please write an expression, not the final numerical result.'
p2615
aas(g71
S'gstamp'
p2616
tp2617
(lp2618
(lp2619
S'2016-10-14 23:19:25'
p2620
aS'C(5,3)'
p2621
aS'Please write an expression, not the final numerical result.'
p2622
aas(g675
S'cwasley'
p2623
tp2624
(lp2625
(lp2626
S'2016-10-14 23:53:42'
p2627
aS'35'
p2628
aS'Please write an expression, not the final numerical result.'
p2629
aa(lp2630
S'2016-10-14 23:54:46'
p2631
aS'3024'
p2632
aS'Please write an expression, not the final numerical result.'
p2633
aas(g411
S'HansGamboa'
p2634
tp2635
(lp2636
(lp2637
S'2016-10-14 19:51:16'
p2638
aS'1001'
p2639
aS'Please write an expression, not the final numerical result.'
p2640
aa(lp2641
S'2016-10-14 20:04:07'
p2642
aS'28'
p2643
aS'Please write an expression, not the final numerical result.'
p2644
aas(g784
S'arman'
p2645
tp2646
(lp2647
(lp2648
S'2016-10-14 22:53:45'
p2649
aS'28'
p2650
aS'Please write an expression, not the final numerical result.'
p2651
aass(g27
g3
g27
tp2652
(dp2653
(g427
S'gurkiratsingh'
p2654
tp2655
(lp2656
(lp2657
S'2016-10-14 20:56:41'
p2658
ag1734
aS'Please write an expression, not the final numerical result.'
p2659
aass(g1
g3
g2
tp2660
(dp2661
(g118
S'thartopu'
p2662
tp2663
(lp2664
(lp2665
S'2016-10-19 11:21:36'
p2666
aS'no attempt'
p2667
aS'Please write an expression, not the final numerical result.'
p2668
aas(g2358
S'zhenzhai'
p2669
tp2670
(lp2671
(lp2672
S'2016-10-19 09:28:10'
p2673
aS'no attempt'
p2674
aS'Please write an expression, not the final numerical result.'
p2675
aa(lp2676
S'2016-10-19 09:28:12'
p2677
aS'no attempt'
p2678
aS'Please write an expression, not the final numerical result.'
p2679
aas(S'268'
p2680
S'rrivasfe'
p2681
tp2682
(lp2683
(lp2684
S'2016-10-19 15:35:29'
p2685
aS'no attempt'
p2686
aS'Please write an expression, not the final numerical result.'
p2687
aas(S'167'
p2688
S'vincebai'
p2689
tp2690
(lp2691
(lp2692
S'2016-10-19 19:49:11'
p2693
aS'no attempt'
p2694
aS'Please write an expression, not the final numerical result.'
p2695
aass(g3
g68
g2
tp2696
(dp2697
(g333
S'Brnkvu'
p2698
tp2699
(lp2700
(lp2701
S'2016-10-05 23:32:08'
p2702
aS'20'
p2703
aS'Please write an expression, not the final numerical result.'
p2704
aas(S'188'
p2705
S'alidding'
p2706
tp2707
(lp2708
(lp2709
S'2016-10-06 06:25:40'
p2710
aS'5 * 5 / 2'
p2711
aS'Can the answer be fractional?'
p2712
aas(g99
S'a1vinwu'
p2713
tp2714
(lp2715
(lp2716
S'2016-10-06 04:23:16'
p2717
ag607
aS'Please write an expression, not the final numerical result.'
p2718
aass(g27
g210
g2
tp2719
(dp2720
(g784
S'arman'
p2721
tp2722
(lp2723
(lp2724
S'2016-10-14 22:49:56'
p2725
aS'14'
p2726
aS'Please write an expression, not the final numerical result.'
p2727
aa(lp2728
S'2016-10-14 22:53:40'
p2729
ag210
aS'Please write an expression, not the final numerical result.'
p2730
aas(g333
S'Brnkvu'
p2731
tp2732
(lp2733
(lp2734
S'2016-10-14 20:50:36'
p2735
ag68
aS'Please write an expression, not the final numerical result.'
p2736
aas(g1606
S'Arash'
p2737
tp2738
(lp2739
(lp2740
S'2016-10-15 00:41:37'
p2741
ag210
aS'Please write an expression, not the final numerical result.'
p2742
aas(g2319
S'isabella'
p2743
tp2744
(lp2745
(lp2746
S'2016-10-14 20:37:38'
p2747
ag210
aS'Please write an expression, not the final numerical result.'
p2748
aa(lp2749
S'2016-10-14 20:45:54'
p2750
ag51
aS'Please write an expression, not the final numerical result.'
p2751
aas(g836
S'aliqbal'
p2752
tp2753
(lp2754
(lp2755
S'2016-10-15 00:19:43'
p2756
ag1
aS'Please write an expression, not the final numerical result.'
p2757
aa(lp2758
S'2016-10-15 00:19:45'
p2759
ag1
aS'Please write an expression, not the final numerical result.'
p2760
aa(lp2761
S'2016-10-15 00:19:45'
p2762
ag1
aS'Please write an expression, not the final numerical result.'
p2763
aa(lp2764
S'2016-10-15 00:19:47'
p2765
ag1
aS'Please write an expression, not the final numerical result.'
p2766
aa(lp2767
S'2016-10-15 00:19:47'
p2768
ag1
aS'Please write an expression, not the final numerical result.'
p2769
aa(lp2770
S'2016-10-15 00:19:47'
p2771
ag1
aS'Please write an expression, not the final numerical result.'
p2772
aas(g1692
S'rjanowit'
p2773
tp2774
(lp2775
(lp2776
S'2016-10-14 23:53:33'
p2777
aS'13'
p2778
aS'Please write an expression, not the final numerical result.'
p2779
aas(g883
S'kennyglee'
p2780
tp2781
(lp2782
(lp2783
S'2016-10-14 16:31:20'
p2784
ag115
aS'Please write an expression, not the final numerical result.'
p2785
aas(g30
S'djmoreno'
p2786
tp2787
(lp2788
(lp2789
S'2016-10-15 00:05:05'
p2790
aS'11'
p2791
aS'Please write an expression, not the final numerical result.'
p2792
aas(g924
S'axl004'
p2793
tp2794
(lp2795
(lp2796
S'2016-10-14 23:36:51'
p2797
aS'13'
p2798
aS'Please write an expression, not the final numerical result.'
p2799
aa(lp2800
S'2016-10-14 23:37:26'
p2801
aS'17'
p2802
aS'Please write an expression, not the final numerical result.'
p2803
aas(g496
S'ottojursch'
p2804
tp2805
(lp2806
(lp2807
S'2016-10-14 20:38:46'
p2808
aS'11'
p2809
aS'Please write an expression, not the final numerical result.'
p2810
aas(g411
S'HansGamboa'
p2811
tp2812
(lp2813
(lp2814
S'2016-10-14 19:51:05'
p2815
ag3
aS'Please write an expression, not the final numerical result.'
p2816
aas(g644
S'kkhuong'
p2817
tp2818
(lp2819
(lp2820
S'2016-10-14 17:16:03'
p2821
ag1
aS'Please write an expression, not the final numerical result.'
p2822
aa(lp2823
S'2016-10-14 17:16:31'
p2824
ag3
aS'Please write an expression, not the final numerical result.'
p2825
aas(g516
S'danFlorencio'
p2826
tp2827
(lp2828
(lp2829
S'2016-10-14 11:59:55'
p2830
ag27
aS'Please write an expression, not the final numerical result.'
p2831
aas(g71
S'gstamp'
p2832
tp2833
(lp2834
(lp2835
S'2016-10-14 23:20:52'
p2836
ag115
aS'Please write an expression, not the final numerical result.'
p2837
aa(lp2838
S'2016-10-14 23:34:32'
p2839
ag51
aS'Please write an expression, not the final numerical result.'
p2840
aa(lp2841
S'2016-10-15 00:15:07'
p2842
aS'15'
p2843
aS'Please write an expression, not the final numerical result.'
p2844
aas(g427
S'gurkiratsingh'
p2845
tp2846
(lp2847
(lp2848
S'2016-10-14 20:20:37'
p2849
ag1
aS'Please write an expression, not the final numerical result.'
p2850
aa(lp2851
S'2016-10-14 20:27:22'
p2852
ag210
aS'Please write an expression, not the final numerical result.'
p2853
aas(g592
S'Derrick'
p2854
tp2855
(lp2856
(lp2857
S'2016-10-14 19:09:13'
p2858
aS'14'
p2859
aS'Please write an expression, not the final numerical result.'
p2860
aa(lp2861
S'2016-10-14 19:11:00'
p2862
aS'23'
p2863
aS'Please write an expression, not the final numerical result.'
p2864
aass(g3
g210
g3
tp2865
(dp2866
(g333
S'Brnkvu'
p2867
tp2868
(lp2869
(lp2870
S'2016-10-05 23:20:04'
p2871
aS'81900'
p2872
aS'Please write an expression, not the final numerical result.'
p2873
aass.